target datalayout = "e-m:e-p270:32:32-p271:32:32-p272:64:64-i64:64-i128:128-f80:128-n8:16:32:64-S128"
target triple = "x86_64-pc-linux-gnu"

%"class.duckdb::MetadataManager" = type { ptr, ptr, %"class.std::unordered_map", %"class.std::unordered_map.2" }
%"class.std::unordered_map" = type { %"class.std::_Hashtable" }
%"class.std::_Hashtable" = type { ptr, i64, %"struct.std::__detail::_Hash_node_base", i64, %"struct.std::__detail::_Prime_rehash_policy", ptr }
%"struct.std::__detail::_Hash_node_base" = type { ptr }
%"struct.std::__detail::_Prime_rehash_policy" = type { float, i64 }
%"class.std::unordered_map.2" = type { %"class.std::_Hashtable.3" }
%"class.std::_Hashtable.3" = type { ptr, i64, %"struct.std::__detail::_Hash_node_base", i64, %"struct.std::__detail::_Prime_rehash_policy", ptr }
%"struct.duckdb::MetadataHandle" = type { %"struct.duckdb::MetadataPointer", %"class.duckdb::BufferHandle" }
%"struct.duckdb::MetadataPointer" = type { i64 }
%"class.duckdb::BufferHandle" = type { %"class.duckdb::shared_ptr", %"class.duckdb::optional_ptr" }
%"class.duckdb::shared_ptr" = type { %"class.std::shared_ptr" }
%"class.std::shared_ptr" = type { %"class.std::__shared_ptr" }
%"class.std::__shared_ptr" = type { ptr, %"class.std::__shared_count" }
%"class.std::__shared_count" = type { ptr }
%"class.duckdb::optional_ptr" = type { ptr }
%"class.std::mutex" = type { %"class.std::__mutex_base" }
%"class.std::__mutex_base" = type { %union.pthread_mutex_t }
%union.pthread_mutex_t = type { %struct.__pthread_mutex_s }
%struct.__pthread_mutex_s = type { i32, i32, i32, i32, i32, i16, i16, %struct.__pthread_internal_list }
%struct.__pthread_internal_list = type { ptr, ptr }
%"class.duckdb::BlockManager" = type { ptr, ptr, %"class.std::mutex", %"class.std::unordered_map.16", %"class.duckdb::unique_ptr", %"class.duckdb::optional_idx" }
%"class.std::unordered_map.16" = type { %"class.std::_Hashtable.17" }
%"class.std::_Hashtable.17" = type { ptr, i64, %"struct.std::__detail::_Hash_node_base", i64, %"struct.std::__detail::_Prime_rehash_policy", ptr }
%"class.duckdb::unique_ptr" = type { %"class.std::unique_ptr" }
%"class.std::unique_ptr" = type { %"struct.std::__uniq_ptr_data" }
%"struct.std::__uniq_ptr_data" = type { %"class.std::__uniq_ptr_impl" }
%"class.std::__uniq_ptr_impl" = type { %"class.std::tuple" }
%"class.std::tuple" = type { %"struct.std::_Tuple_impl" }
%"struct.std::_Tuple_impl" = type { %"struct.std::_Head_base.31" }
%"struct.std::_Head_base.31" = type { ptr }
%"class.duckdb::optional_idx" = type { i64 }
%"class.duckdb::FileBuffer" = type { ptr, ptr, ptr, i64, i8, ptr, i64 }
%"class.duckdb::optional_ptr.85" = type { ptr }
%"class.duckdb::MetadataWriter" = type { %"class.duckdb::WriteStream", ptr, %"struct.duckdb::MetadataHandle", %"struct.duckdb::MetadataPointer", %"class.duckdb::optional_ptr.85", i64, i64 }
%"class.duckdb::WriteStream" = type { ptr }

; Function Attrs: inlinehint mustprogress nounwind uwtable
define linkonce_odr noundef i64 @_ZN6duckdb15AlignValueFloorImTnT_Lm8EEES1_S1_(i64 noundef %0) #1 comdat {
  %2 = alloca i64, align 8
  store i64 %0, ptr %2, align 8, !tbaa !16
  %3 = load i64, ptr %2, align 8, !tbaa !16
  %4 = udiv i64 %3, 8
  %5 = mul i64 %4, 8
  ret i64 %5
}

; Function Attrs: inlinehint mustprogress uwtable
define linkonce_odr noundef i64 @_ZNK6duckdb12BlockManager12GetBlockSizeEv(ptr noundef nonnull align 8 dereferenceable(128) %0) #4 comdat align 2 {
  %2 = alloca ptr, align 8
  store ptr %0, ptr %2, align 8, !tbaa !8
  %3 = load ptr, ptr %2, align 8
  %4 = getelementptr inbounds nuw %"class.duckdb::BlockManager", ptr %3, i32 0, i32 5
  %5 = call noundef i64 @_ZNK6duckdb12optional_idx8GetIndexEv(ptr noundef nonnull align 8 dereferenceable(8) %4)
  %6 = sub i64 %5, 8
  ret i64 %6
}

; Function Attrs: mustprogress uwtable
define linkonce_odr noundef ptr @_ZN6duckdb12optional_ptrINS_10FileBufferELb1EEptEv(ptr noundef nonnull align 8 dereferenceable(8) %0) #2 comdat align 2 {
  %2 = alloca ptr, align 8
  store ptr %0, ptr %2, align 8, !tbaa !307
  %3 = load ptr, ptr %2, align 8
  call void @_ZNK6duckdb12optional_ptrINS_10FileBufferELb1EE10CheckValidEv(ptr noundef nonnull align 8 dereferenceable(8) %3)
  %4 = getelementptr inbounds nuw %"class.duckdb::optional_ptr", ptr %3, i32 0, i32 0
  %5 = load ptr, ptr %4, align 8, !tbaa !309
  ret ptr %5
}

; Function Attrs: mustprogress uwtable
define noundef i64 @_ZNK6duckdb15MetadataManager20GetMetadataBlockSizeEv(ptr noundef nonnull align 8 dereferenceable(128) %0) #2 align 2 {
  %2 = alloca ptr, align 8
  store ptr %0, ptr %2, align 8, !tbaa !3
  %3 = load ptr, ptr %2, align 8
  %4 = getelementptr inbounds nuw %"class.duckdb::MetadataManager", ptr %3, i32 0, i32 0
  %5 = load ptr, ptr %4, align 8, !tbaa !47
  %6 = call noundef i64 @_ZNK6duckdb12BlockManager12GetBlockSizeEv(ptr noundef nonnull align 8 dereferenceable(128) %5)
  %7 = udiv i64 %6, 64
  %8 = call noundef i64 @_ZN6duckdb15AlignValueFloorImTnT_Lm8EEES1_S1_(i64 noundef %7)
  ret i64 %8
}

; Function Attrs: mustprogress nounwind uwtable
define linkonce_odr noundef nonnull align 8 dereferenceable(128) ptr @_ZN6duckdb14MetadataWriter10GetManagerEv(ptr noundef nonnull align 8 dereferenceable(80) %0) #0 comdat align 2 {
  %2 = alloca ptr, align 8
  store ptr %0, ptr %2, align 8, !tbaa !229
  %3 = load ptr, ptr %2, align 8
  %4 = getelementptr inbounds nuw %"class.duckdb::MetadataWriter", ptr %3, i32 0, i32 1
  %5 = load ptr, ptr %4, align 8, !tbaa !235
  ret ptr %5
}

; Function Attrs: inlinehint mustprogress uwtable
define linkonce_odr noundef ptr @_ZN6duckdb12BufferHandle3PtrEv(ptr noundef nonnull align 8 dereferenceable(24) %0) #4 comdat align 2 {
  %2 = alloca ptr, align 8
  store ptr %0, ptr %2, align 8, !tbaa !108
  %3 = load ptr, ptr %2, align 8
  %4 = getelementptr inbounds nuw %"class.duckdb::BufferHandle", ptr %3, i32 0, i32 1
  %5 = call noundef ptr @_ZN6duckdb12optional_ptrINS_10FileBufferELb1EEptEv(ptr noundef nonnull align 8 dereferenceable(8) %4)
  %6 = getelementptr inbounds nuw %"class.duckdb::FileBuffer", ptr %5, i32 0, i32 2
  %7 = load ptr, ptr %6, align 8, !tbaa !110
  ret ptr %7
}

; Function Attrs: mustprogress uwtable
define noundef ptr @_ZN6duckdb14MetadataWriter7BasePtrEv(ptr noundef nonnull align 8 dereferenceable(80) %0) #2 align 2 {
  %2 = alloca ptr, align 8
  store ptr %0, ptr %2, align 8, !tbaa !229
  %3 = load ptr, ptr %2, align 8
  %4 = getelementptr inbounds nuw %"class.duckdb::MetadataWriter", ptr %3, i32 0, i32 2
  %5 = getelementptr inbounds nuw %"struct.duckdb::MetadataHandle", ptr %4, i32 0, i32 1
  %6 = call noundef ptr @_ZN6duckdb12BufferHandle3PtrEv(ptr noundef nonnull align 8 dereferenceable(24) %5)
  %7 = getelementptr inbounds nuw %"class.duckdb::MetadataWriter", ptr %3, i32 0, i32 3
  %8 = load i64, ptr %7, align 8
  %9 = lshr i64 %8, 56
  %10 = trunc i64 %9 to i8
  %11 = zext i8 %10 to i64
  %12 = call noundef nonnull align 8 dereferenceable(128) ptr @_ZN6duckdb14MetadataWriter10GetManagerEv(ptr noundef nonnull align 8 dereferenceable(80) %3)
  %13 = call noundef i64 @_ZNK6duckdb15MetadataManager20GetMetadataBlockSizeEv(ptr noundef nonnull align 8 dereferenceable(128) %12)
  %14 = mul i64 %11, %13
  %15 = getelementptr inbounds nuw i8, ptr %6, i64 %14
  ret ptr %15
}